; Function Attrs: mustprogress uwtable
define void @_ZN4base9HexEncodeB5cxx11EPKvm(ptr dead_on_unwind noalias nonnull writable sret(%"class.std::__cxx11::basic_string") align 8 %0, ptr noundef readonly captures(none) %1, i64 noundef %2) local_unnamed_addr #0 personality ptr @__gxx_personality_v0 {
  %4 = shl i64 %2, 1
  %5 = getelementptr inbounds nuw i8, ptr %0, i64 16
  store ptr %5, ptr %0, align 8, !tbaa !11
  tail call void @_ZNSt7__cxx1112basic_stringIcSt11char_traitsIcESaIcEE12_M_constructEmc(ptr noundef nonnull align 8 dereferenceable(32) %0, i64 noundef %4, i8 noundef signext 0)
  %.not = icmp eq i64 %2, 0
  br i1 %.not, label %_ZNSt7__cxx1112basic_stringIcSt11char_traitsIcESaIcEEC2EmcRKS3_.exit._crit_edge, label %_ZNSt7__cxx1112basic_stringIcSt11char_traitsIcESaIcEEC2EmcRKS3_.exit

_ZNSt7__cxx1112basic_stringIcSt11char_traitsIcESaIcEEC2EmcRKS3_.exit: ; preds = %3, %_ZNSt7__cxx1112basic_stringIcSt11char_traitsIcESaIcEEC2EmcRKS3_.exit
  %.012 = phi i64 [ %23, %_ZNSt7__cxx1112basic_stringIcSt11char_traitsIcESaIcEEC2EmcRKS3_.exit ], [ 0, %3 ]
  %6 = getelementptr inbounds nuw i8, ptr %1, i64 %.012
  %7 = load i8, ptr %6, align 1, !tbaa !6
  %8 = zext i8 %7 to i32
  %9 = lshr i32 %8, 4
  %10 = zext nneg i32 %9 to i64
  %11 = getelementptr inbounds nuw [17 x i8], ptr @_ZZN4base9HexEncodeB5cxx11EPKvmE9kHexChars, i64 0, i64 %10
  %12 = load i8, ptr %11, align 1, !tbaa !6
  %13 = shl i64 %.012, 1
  %14 = load ptr, ptr %0, align 8, !tbaa !19
  %15 = getelementptr inbounds nuw i8, ptr %14, i64 %13
  store i8 %12, ptr %15, align 1, !tbaa !6
  %16 = and i32 %8, 15
  %17 = zext nneg i32 %16 to i64
  %18 = getelementptr inbounds nuw [17 x i8], ptr @_ZZN4base9HexEncodeB5cxx11EPKvmE9kHexChars, i64 0, i64 %17
  %19 = load i8, ptr %18, align 1, !tbaa !6
  %20 = or disjoint i64 %13, 1
  %21 = load ptr, ptr %0, align 8, !tbaa !19
  %22 = getelementptr inbounds nuw i8, ptr %21, i64 %20
  store i8 %19, ptr %22, align 1, !tbaa !6
  %23 = add nuw i64 %.012, 1
  %exitcond.not = icmp eq i64 %23, %2
  br i1 %exitcond.not, label %_ZNSt7__cxx1112basic_stringIcSt11char_traitsIcESaIcEEC2EmcRKS3_.exit._crit_edge, label %_ZNSt7__cxx1112basic_stringIcSt11char_traitsIcESaIcEEC2EmcRKS3_.exit, !llvm.loop !93

_ZNSt7__cxx1112basic_stringIcSt11char_traitsIcESaIcEEC2EmcRKS3_.exit._crit_edge: ; preds = %_ZNSt7__cxx1112basic_stringIcSt11char_traitsIcESaIcEEC2EmcRKS3_.exit, %3
  ret void
}